target datalayout = "e-m:e-p270:32:32-p271:32:32-p272:64:64-i64:64-i128:128-f80:128-n8:16:32:64-S128"
target triple = "x86_64-pc-linux-gnu"

%struct.pkcs7_st = type { ptr, i64, i32, i32, ptr, %union.anon.1, %struct.PKCS7_CTX_st }
%union.anon.1 = type { ptr }
%struct.PKCS7_CTX_st = type { ptr, ptr }
%struct.pkcs7_encrypted_st = type { ptr, ptr }
%struct.pkcs7_enc_content_st = type { ptr, ptr, ptr, ptr, ptr }

@.str = private unnamed_addr constant [35 x i8] c"../openssl/crypto/pkcs12/p12_add.c\00", align 1
@__func__.PKCS12_pack_p7encdata_ex = private unnamed_addr constant [25 x i8] c"PKCS12_pack_p7encdata_ex\00", align 1

; Function Attrs: nounwind uwtable
define ptr @PKCS12_pack_p7encdata_ex(i32 noundef %0, ptr noundef %1, i32 noundef %2, ptr noundef %3, i32 noundef %4, i32 noundef %5, ptr noundef %6, ptr noundef %7, ptr noundef %8) #0 {
  %10 = alloca ptr, align 8
  %11 = alloca i32, align 4
  %12 = alloca ptr, align 8
  %13 = alloca i32, align 4
  %14 = alloca ptr, align 8
  %15 = alloca i32, align 4
  %16 = alloca i32, align 4
  %17 = alloca ptr, align 8
  %18 = alloca ptr, align 8
  %19 = alloca ptr, align 8
  %20 = alloca ptr, align 8
  %21 = alloca ptr, align 8
  %22 = alloca ptr, align 8
  %23 = alloca ptr, align 8
  %24 = alloca i32, align 4
  store i32 %0, ptr %11, align 4, !tbaa !9
  store ptr %1, ptr %12, align 8, !tbaa !32
  store i32 %2, ptr %13, align 4, !tbaa !9
  store ptr %3, ptr %14, align 8, !tbaa !32
  store i32 %4, ptr %15, align 4, !tbaa !9
  store i32 %5, ptr %16, align 4, !tbaa !9
  store ptr %6, ptr %17, align 8, !tbaa !22
  store ptr %7, ptr %18, align 8, !tbaa !33
  store ptr %8, ptr %19, align 8, !tbaa !32
  call void @llvm.lifetime.start.p0(i64 8, ptr %20) #4
  call void @llvm.lifetime.start.p0(i64 8, ptr %21) #4
  call void @llvm.lifetime.start.p0(i64 8, ptr %22) #4
  store ptr null, ptr %22, align 8, !tbaa !34
  call void @llvm.lifetime.start.p0(i64 8, ptr %23) #4
  store ptr null, ptr %23, align 8, !tbaa !34
  %25 = load ptr, ptr %18, align 8, !tbaa !33
  %26 = load ptr, ptr %19, align 8, !tbaa !32
  %27 = call ptr @PKCS7_new_ex(ptr noundef %25, ptr noundef %26)
  store ptr %27, ptr %20, align 8, !tbaa !24
  %28 = icmp eq ptr %27, null
  br i1 %28, label %29, label %30

29:                                               ; preds = %9
  call void @ERR_new()
  call void @ERR_set_debug(ptr noundef @.str, i32 noundef 105, ptr noundef @__func__.PKCS12_pack_p7encdata_ex)
  call void (i32, i32, ptr, ...) @ERR_set_error(i32 noundef 35, i32 noundef 524301, ptr noundef null)
  store ptr null, ptr %10, align 8
  store i32 1, ptr %24, align 4
  br label %114

30:                                               ; preds = %9
  %31 = load ptr, ptr %20, align 8, !tbaa !24
  %32 = call i32 @PKCS7_set_type(ptr noundef %31, i32 noundef 26)
  %33 = icmp ne i32 %32, 0
  br i1 %33, label %35, label %34

34:                                               ; preds = %30
  call void @ERR_new()
  call void @ERR_set_debug(ptr noundef @.str, i32 noundef 109, ptr noundef @__func__.PKCS12_pack_p7encdata_ex)
  call void (i32, i32, ptr, ...) @ERR_set_error(i32 noundef 35, i32 noundef 120, ptr noundef null)
  br label %111

35:                                               ; preds = %30
  %36 = call i32 @ERR_set_mark()
  %37 = load ptr, ptr %18, align 8, !tbaa !33
  %38 = load i32, ptr %11, align 4, !tbaa !9
  %39 = call ptr @OBJ_nid2sn(i32 noundef %38)
  %40 = load ptr, ptr %19, align 8, !tbaa !32
  %41 = call ptr @EVP_CIPHER_fetch(ptr noundef %37, ptr noundef %39, ptr noundef %40)
  store ptr %41, ptr %23, align 8, !tbaa !34
  store ptr %41, ptr %22, align 8, !tbaa !34
  %42 = load ptr, ptr %22, align 8, !tbaa !34
  %43 = icmp eq ptr %42, null
  br i1 %43, label %44, label %48

44:                                               ; preds = %35
  %45 = load i32, ptr %11, align 4, !tbaa !9
  %46 = call ptr @OBJ_nid2sn(i32 noundef %45)
  %47 = call ptr @EVP_get_cipherbyname(ptr noundef %46)
  store ptr %47, ptr %22, align 8, !tbaa !34
  br label %48

48:                                               ; preds = %44, %35
  %49 = call i32 @ERR_pop_to_mark()
  %50 = load ptr, ptr %22, align 8, !tbaa !34
  %51 = icmp ne ptr %50, null
  br i1 %51, label %52, label %59

52:                                               ; preds = %48
  %53 = load ptr, ptr %22, align 8, !tbaa !34
  %54 = load i32, ptr %16, align 4, !tbaa !9
  %55 = load ptr, ptr %14, align 8, !tbaa !32
  %56 = load i32, ptr %15, align 4, !tbaa !9
  %57 = load ptr, ptr %18, align 8, !tbaa !33
  %58 = call ptr @PKCS5_pbe2_set_iv_ex(ptr noundef %53, i32 noundef %54, ptr noundef %55, i32 noundef %56, ptr noundef null, i32 noundef -1, ptr noundef %57)
  store ptr %58, ptr %21, align 8, !tbaa !36
  br label %66

59:                                               ; preds = %48
  %60 = load i32, ptr %11, align 4, !tbaa !9
  %61 = load i32, ptr %16, align 4, !tbaa !9
  %62 = load ptr, ptr %14, align 8, !tbaa !32
  %63 = load i32, ptr %15, align 4, !tbaa !9
  %64 = load ptr, ptr %18, align 8, !tbaa !33
  %65 = call ptr @PKCS5_pbe_set_ex(i32 noundef %60, i32 noundef %61, ptr noundef %62, i32 noundef %63, ptr noundef %64)
  store ptr %65, ptr %21, align 8, !tbaa !36
  br label %66

66:                                               ; preds = %59, %52
  %67 = load ptr, ptr %21, align 8, !tbaa !36
  %68 = icmp eq ptr %67, null
  br i1 %68, label %69, label %70

69:                                               ; preds = %66
  call void @ERR_new()
  call void @ERR_set_debug(ptr noundef @.str, i32 noundef 126, ptr noundef @__func__.PKCS12_pack_p7encdata_ex)
  call void (i32, i32, ptr, ...) @ERR_set_error(i32 noundef 35, i32 noundef 524301, ptr noundef null)
  br label %111

70:                                               ; preds = %66
  %71 = load ptr, ptr %20, align 8, !tbaa !24
  %72 = getelementptr inbounds nuw %struct.pkcs7_st, ptr %71, i32 0, i32 5
  %73 = load ptr, ptr %72, align 8, !tbaa !18
  %74 = getelementptr inbounds nuw %struct.pkcs7_encrypted_st, ptr %73, i32 0, i32 1
  %75 = load ptr, ptr %74, align 8, !tbaa !38
  %76 = getelementptr inbounds nuw %struct.pkcs7_enc_content_st, ptr %75, i32 0, i32 1
  %77 = load ptr, ptr %76, align 8, !tbaa !42
  call void @X509_ALGOR_free(ptr noundef %77)
  %78 = load ptr, ptr %21, align 8, !tbaa !36
  %79 = load ptr, ptr %20, align 8, !tbaa !24
  %80 = getelementptr inbounds nuw %struct.pkcs7_st, ptr %79, i32 0, i32 5
  %81 = load ptr, ptr %80, align 8, !tbaa !18
  %82 = getelementptr inbounds nuw %struct.pkcs7_encrypted_st, ptr %81, i32 0, i32 1
  %83 = load ptr, ptr %82, align 8, !tbaa !38
  %84 = getelementptr inbounds nuw %struct.pkcs7_enc_content_st, ptr %83, i32 0, i32 1
  store ptr %78, ptr %84, align 8, !tbaa !42
  %85 = load ptr, ptr %20, align 8, !tbaa !24
  %86 = getelementptr inbounds nuw %struct.pkcs7_st, ptr %85, i32 0, i32 5
  %87 = load ptr, ptr %86, align 8, !tbaa !18
  %88 = getelementptr inbounds nuw %struct.pkcs7_encrypted_st, ptr %87, i32 0, i32 1
  %89 = load ptr, ptr %88, align 8, !tbaa !38
  %90 = getelementptr inbounds nuw %struct.pkcs7_enc_content_st, ptr %89, i32 0, i32 2
  %91 = load ptr, ptr %90, align 8, !tbaa !45
  call void @ASN1_OCTET_STRING_free(ptr noundef %91)
  %92 = load ptr, ptr %21, align 8, !tbaa !36
  %93 = call ptr @PKCS12_SAFEBAGS_it()
  %94 = load ptr, ptr %12, align 8, !tbaa !32
  %95 = load i32, ptr %13, align 4, !tbaa !9
  %96 = load ptr, ptr %17, align 8, !tbaa !22
  %97 = load ptr, ptr %18, align 8, !tbaa !33
  %98 = load ptr, ptr %19, align 8, !tbaa !32
  %99 = call ptr @PKCS12_item_i2d_encrypt_ex(ptr noundef %92, ptr noundef %93, ptr noundef %94, i32 noundef %95, ptr noundef %96, i32 noundef 1, ptr noundef %97, ptr noundef %98)
  %100 = load ptr, ptr %20, align 8, !tbaa !24
  %101 = getelementptr inbounds nuw %struct.pkcs7_st, ptr %100, i32 0, i32 5
  %102 = load ptr, ptr %101, align 8, !tbaa !18
  %103 = getelementptr inbounds nuw %struct.pkcs7_encrypted_st, ptr %102, i32 0, i32 1
  %104 = load ptr, ptr %103, align 8, !tbaa !38
  %105 = getelementptr inbounds nuw %struct.pkcs7_enc_content_st, ptr %104, i32 0, i32 2
  store ptr %99, ptr %105, align 8, !tbaa !45
  %106 = icmp ne ptr %99, null
  br i1 %106, label %108, label %107

107:                                              ; preds = %70
  call void @ERR_new()
  call void @ERR_set_debug(ptr noundef @.str, i32 noundef 135, ptr noundef @__func__.PKCS12_pack_p7encdata_ex)
  call void (i32, i32, ptr, ...) @ERR_set_error(i32 noundef 35, i32 noundef 103, ptr noundef null)
  br label %111

108:                                              ; preds = %70
  %109 = load ptr, ptr %23, align 8, !tbaa !34
  call void @EVP_CIPHER_free(ptr noundef %109)
  %110 = load ptr, ptr %20, align 8, !tbaa !24
  store ptr %110, ptr %10, align 8
  store i32 1, ptr %24, align 4
  br label %114

111:                                              ; preds = %107, %69, %34
  %112 = load ptr, ptr %20, align 8, !tbaa !24
  call void @PKCS7_free(ptr noundef %112)
  %113 = load ptr, ptr %23, align 8, !tbaa !34
  call void @EVP_CIPHER_free(ptr noundef %113)
  store ptr null, ptr %10, align 8
  store i32 1, ptr %24, align 4
  br label %114

114:                                              ; preds = %111, %108, %29
  call void @llvm.lifetime.end.p0(i64 8, ptr %23) #4
  call void @llvm.lifetime.end.p0(i64 8, ptr %22) #4
  call void @llvm.lifetime.end.p0(i64 8, ptr %21) #4
  call void @llvm.lifetime.end.p0(i64 8, ptr %20) #4
  %115 = load ptr, ptr %10, align 8
  ret ptr %115
}