; Function Attrs: nounwind uwtable
define ptr @PKCS12_pack_p7encdata_ex(i32 noundef %0, ptr noundef %1, i32 noundef %2, ptr noundef %3, i32 noundef %4, i32 noundef %5, ptr noundef %6, ptr noundef %7, ptr noundef %8) local_unnamed_addr #0 {
  %10 = tail call ptr @PKCS7_new_ex(ptr noundef %7, ptr noundef %8) #2
  %11 = icmp eq ptr %10, null
  br i1 %11, label %12, label %13

12:                                               ; preds = %9
  tail call void @ERR_new() #2
  tail call void @ERR_set_debug(ptr noundef nonnull @.str, i32 noundef 105, ptr noundef nonnull @__func__.PKCS12_pack_p7encdata_ex) #2
  tail call void (i32, i32, ptr, ...) @ERR_set_error(i32 noundef 35, i32 noundef 524301, ptr noundef null) #2
  br label %55

13:                                               ; preds = %9
  %14 = tail call i32 @PKCS7_set_type(ptr noundef nonnull %10, i32 noundef 26) #2
  %.not = icmp eq i32 %14, 0
  br i1 %.not, label %54, label %15

15:                                               ; preds = %13
  %16 = tail call i32 @ERR_set_mark() #2
  %17 = tail call ptr @OBJ_nid2sn(i32 noundef %0) #2
  %18 = tail call ptr @EVP_CIPHER_fetch(ptr noundef %7, ptr noundef %17, ptr noundef %8) #2
  %19 = icmp eq ptr %18, null
  br i1 %19, label %21, label %.thread

.thread:                                          ; preds = %15
  %20 = tail call i32 @ERR_pop_to_mark() #2
  br label %25

21:                                               ; preds = %15
  %22 = tail call ptr @OBJ_nid2sn(i32 noundef %0) #2
  %23 = tail call ptr @EVP_get_cipherbyname(ptr noundef %22) #2
  %24 = tail call i32 @ERR_pop_to_mark() #2
  %.not40 = icmp eq ptr %23, null
  br i1 %.not40, label %27, label %25

25:                                               ; preds = %.thread, %21
  %.03544 = phi ptr [ %18, %.thread ], [ %23, %21 ]
  %26 = tail call ptr @PKCS5_pbe2_set_iv_ex(ptr noundef nonnull %.03544, i32 noundef %5, ptr noundef %3, i32 noundef %4, ptr noundef null, i32 noundef -1, ptr noundef %7) #2
  br label %29

27:                                               ; preds = %21
  %28 = tail call ptr @PKCS5_pbe_set_ex(i32 noundef %0, i32 noundef %5, ptr noundef %3, i32 noundef %4, ptr noundef %7) #2
  br label %29

29:                                               ; preds = %27, %25
  %.036 = phi ptr [ %26, %25 ], [ %28, %27 ]
  %30 = icmp eq ptr %.036, null
  br i1 %30, label %54, label %31

31:                                               ; preds = %29
  %32 = getelementptr inbounds nuw i8, ptr %10, i64 32
  %33 = load ptr, ptr %32, align 8, !tbaa !9
  %34 = getelementptr inbounds nuw i8, ptr %33, i64 8
  %35 = load ptr, ptr %34, align 8, !tbaa !20
  %36 = getelementptr inbounds nuw i8, ptr %35, i64 8
  %37 = load ptr, ptr %36, align 8, !tbaa !24
  tail call void @X509_ALGOR_free(ptr noundef %37) #2
  %38 = load ptr, ptr %32, align 8, !tbaa !9
  %39 = getelementptr inbounds nuw i8, ptr %38, i64 8
  %40 = load ptr, ptr %39, align 8, !tbaa !20
  %41 = getelementptr inbounds nuw i8, ptr %40, i64 8
  store ptr %.036, ptr %41, align 8, !tbaa !24
  %42 = load ptr, ptr %32, align 8, !tbaa !9
  %43 = getelementptr inbounds nuw i8, ptr %42, i64 8
  %44 = load ptr, ptr %43, align 8, !tbaa !20
  %45 = getelementptr inbounds nuw i8, ptr %44, i64 16
  %46 = load ptr, ptr %45, align 8, !tbaa !29
  tail call void @ASN1_OCTET_STRING_free(ptr noundef %46) #2
  %47 = tail call ptr @PKCS12_SAFEBAGS_it() #2
  %48 = tail call ptr @PKCS12_item_i2d_encrypt_ex(ptr noundef nonnull %.036, ptr noundef %47, ptr noundef %1, i32 noundef %2, ptr noundef %6, i32 noundef 1, ptr noundef %7, ptr noundef %8) #2
  %49 = load ptr, ptr %32, align 8, !tbaa !9
  %50 = getelementptr inbounds nuw i8, ptr %49, i64 8
  %51 = load ptr, ptr %50, align 8, !tbaa !20
  %52 = getelementptr inbounds nuw i8, ptr %51, i64 16
  store ptr %48, ptr %52, align 8, !tbaa !29
  %.not41 = icmp eq ptr %48, null
  br i1 %.not41, label %54, label %53

53:                                               ; preds = %31
  tail call void @EVP_CIPHER_free(ptr noundef %18) #2
  br label %55

54:                                               ; preds = %31, %29, %13
  %.sink45 = phi i32 [ 109, %13 ], [ 126, %29 ], [ 135, %31 ]
  %.sink = phi i32 [ 120, %13 ], [ 524301, %29 ], [ 103, %31 ]
  %.0 = phi ptr [ null, %13 ], [ %18, %29 ], [ %18, %31 ]
  tail call void @ERR_new() #2
  tail call void @ERR_set_debug(ptr noundef nonnull @.str, i32 noundef %.sink45, ptr noundef nonnull @__func__.PKCS12_pack_p7encdata_ex) #2
  tail call void (i32, i32, ptr, ...) @ERR_set_error(i32 noundef 35, i32 noundef %.sink, ptr noundef null) #2
  tail call void @PKCS7_free(ptr noundef nonnull %10) #2
  tail call void @EVP_CIPHER_free(ptr noundef %.0) #2
  br label %55

55:                                               ; preds = %54, %53, %12
  %.037 = phi ptr [ null, %12 ], [ null, %54 ], [ %10, %53 ]
  ret ptr %.037
}